; Function Attrs: nounwind uwtable
define i32 @f32_recip7(i32 %0) local_unnamed_addr #0 {
  %2 = tail call i64 @f32_classify(i32 %0) #3
  %3 = trunc i64 %2 to i32
  switch i32 %3, label %18 [
    i32 1, label %67
    i32 128, label %4
    i32 8, label %5
    i32 16, label %9
    i32 256, label %13
    i32 512, label %17
    i32 4, label %.preheader.i
    i32 32, label %.preheader.i
  ]

4:                                                ; preds = %1
  br label %67

5:                                                ; preds = %1
  %6 = tail call align 1 ptr @llvm.threadlocal.address.p0(ptr align 1 @softfloat_exceptionFlags)
  %7 = load i8, ptr %6, align 1, !tbaa !3
  %8 = or i8 %7, 8
  store i8 %8, ptr %6, align 1, !tbaa !3
  br label %67

9:                                                ; preds = %1
  %10 = tail call align 1 ptr @llvm.threadlocal.address.p0(ptr align 1 @softfloat_exceptionFlags)
  %11 = load i8, ptr %10, align 1, !tbaa !3
  %12 = or i8 %11, 8
  store i8 %12, ptr %10, align 1, !tbaa !3
  br label %67

13:                                               ; preds = %1
  %14 = tail call align 1 ptr @llvm.threadlocal.address.p0(ptr align 1 @softfloat_exceptionFlags)
  %15 = load i8, ptr %14, align 1, !tbaa !3
  %16 = or i8 %15, 16
  store i8 %16, ptr %14, align 1, !tbaa !3
  br label %17

17:                                               ; preds = %13, %1
  br label %67

18:                                               ; preds = %1
  %19 = zext i32 %0 to i64
  %20 = lshr i64 %19, 23
  %21 = and i64 %20, 255
  %22 = and i64 %19, 8388607
  br label %43

.preheader.i:                                     ; preds = %1, %1
  %23 = zext i32 %0 to i64
  %24 = tail call align 1 ptr @llvm.threadlocal.address.p0(ptr align 1 @softfloat_roundingMode)
  %25 = load i8, ptr %24, align 1, !tbaa !3
  %26 = lshr i64 %23, 23
  %27 = and i64 %26, 255
  %28 = and i64 %23, 4194304
  %29 = icmp eq i64 %28, 0
  br i1 %29, label %.lr.ph.i, label %._crit_edge.i

.lr.ph.i:                                         ; preds = %.preheader.i, %.lr.ph.i
  %.169.i = phi i64 [ %30, %.lr.ph.i ], [ %27, %.preheader.i ]
  %.16268.i = phi i64 [ %31, %.lr.ph.i ], [ %23, %.preheader.i ]
  %30 = add i64 %.169.i, -1
  %31 = shl i64 %.16268.i, 1
  %32 = and i64 %.16268.i, 2097152
  %33 = icmp eq i64 %32, 0
  br i1 %33, label %.lr.ph.i, label %._crit_edge.i, !llvm.loop !8

._crit_edge.i:                                    ; preds = %.lr.ph.i, %.preheader.i
  %.162.lcssa.i = phi i64 [ %23, %.preheader.i ], [ %31, %.lr.ph.i ]
  %.1.lcssa.i = phi i64 [ %27, %.preheader.i ], [ %30, %.lr.ph.i ]
  %34 = shl i64 %.162.lcssa.i, 1
  %35 = and i64 %34, 8388606
  %36 = add i64 %.1.lcssa.i, -1
  %or.cond.i = icmp ult i64 %36, -2
  br i1 %or.cond.i, label %37, label %43

37:                                               ; preds = %._crit_edge.i
  %38 = icmp eq i8 %25, 1
  br i1 %38, label %61, label %39

39:                                               ; preds = %37
  %40 = icmp ne i8 %25, 2
  %41 = icmp slt i32 %0, 0
  %or.cond3.i = select i1 %40, i1 true, i1 %41
  %or.cond3.not.i = xor i1 %or.cond3.i, true
  %42 = icmp eq i8 %25, 3
  %or.cond5.i = select i1 %42, i1 %41, i1 false
  %or.cond66.i = select i1 %or.cond3.not.i, i1 true, i1 %or.cond5.i
  %spec.select = select i1 %or.cond66.i, i32 2139095039, i32 2139095040
  br label %61

43:                                               ; preds = %18, %._crit_edge.i
  %.in = phi i64 [ %23, %._crit_edge.i ], [ %19, %18 ]
  %.061.i = phi i64 [ %35, %._crit_edge.i ], [ %22, %18 ]
  %.060.i = phi i64 [ %.1.lcssa.i, %._crit_edge.i ], [ %21, %18 ]
  %44 = and i64 %.in, 2147483648
  %45 = lshr i64 %.061.i, 16
  %46 = getelementptr inbounds nuw [128 x i8], ptr @recip7.table, i64 0, i64 %45
  %47 = load i8, ptr %46, align 1, !tbaa !3
  %48 = zext i8 %47 to i64
  %49 = shl nuw nsw i64 %48, 16
  %50 = sub nsw i64 253, %.060.i
  %51 = add nsw i64 %.060.i, -253
  %or.cond7.i = icmp ult i64 %51, 2
  br i1 %or.cond7.i, label %52, label %recip7.exit

52:                                               ; preds = %43
  %53 = icmp eq i64 %.060.i, 254
  %54 = shl nuw nsw i64 %48, 15
  %55 = or i64 %54, 4194304
  %56 = zext i1 %53 to i64
  %spec.select.i = lshr exact i64 %55, %56
  %spec.select67.i = select i1 %53, i64 0, i64 %50
  br label %recip7.exit

recip7.exit:                                      ; preds = %43, %52
  %.058.i = phi i64 [ %49, %43 ], [ %spec.select.i, %52 ]
  %.0.i = phi i64 [ %50, %43 ], [ %spec.select67.i, %52 ]
  %57 = shl nsw i64 %.0.i, 23
  %58 = or i64 %.058.i, %44
  %59 = or i64 %58, %57
  %60 = trunc i64 %59 to i32
  br label %67

61:                                               ; preds = %39, %37
  %.sink13 = phi i32 [ 2139095039, %37 ], [ %spec.select, %39 ]
  %62 = and i32 %0, -2147483648
  %63 = or disjoint i32 %62, %.sink13
  %64 = tail call align 1 ptr @llvm.threadlocal.address.p0(ptr align 1 @softfloat_exceptionFlags)
  %65 = load i8, ptr %64, align 1, !tbaa !3
  %66 = or i8 %65, 5
  store i8 %66, ptr %64, align 1, !tbaa !3
  br label %67

67:                                               ; preds = %recip7.exit, %1, %61, %17, %9, %5, %4
  %.sroa.0.0 = phi i32 [ %63, %61 ], [ %60, %recip7.exit ], [ 2143289344, %17 ], [ 2139095040, %9 ], [ -8388608, %5 ], [ 0, %4 ], [ -2147483648, %1 ]
  ret i32 %.sroa.0.0
}